; Function Attrs: null_pointer_is_valid sspstrong uwtable
define internal void @pres_users_oid_set_cb(ptr noundef captures(none) %0, ptr noundef %1, i32 noundef %2, ptr readnone captures(none) %3, ptr readnone captures(none) %4) #0 {
  %6 = zext i32 %2 to i64
  %7 = tail call noalias ptr @g_strndup(ptr noundef %1, i64 noundef %6)
  %8 = getelementptr inbounds nuw i8, ptr %0, i64 8
  %9 = load ptr, ptr %8, align 8
  tail call void @g_free(ptr noundef %9)
  store ptr %7, ptr %8, align 8
  ret void
}